target datalayout = "e-m:e-p270:32:32-p271:32:32-p272:64:64-i64:64-i128:128-f80:128-n8:16:32:64-S128"
target triple = "x86_64-pc-linux-gnu"

%struct.AHCIState = type { ptr, %struct.AHCIControlRegs, %struct.MemoryRegion, %struct.MemoryRegion, i32, i32, i32, ptr, ptr }
%struct.AHCIControlRegs = type { i32, i32, i32, i32, i32 }
%struct.MemoryRegion = type { %struct.Object, i8, i8, i8, i8, i8, i8, i8, i8, i8, i8, ptr, ptr, ptr, ptr, ptr, ptr, i32, i128, i64, ptr, i64, i8, i8, i8, i8, ptr, i64, i32, %union.anon, %union.anon.0, %union.anon.1, ptr, i32, ptr, ptr, i8 }
%struct.Object = type { ptr, ptr, ptr, i32, ptr }
%union.anon = type { %struct.QTailQLink }
%struct.QTailQLink = type { ptr, ptr }
%union.anon.0 = type { %struct.QTailQLink }
%union.anon.1 = type { %struct.QTailQLink }

; Function Attrs: nounwind sspstrong uwtable
define internal void @ahci_idp_write(ptr noundef %0, i64 noundef %1, i64 noundef %2, i32 noundef %3) #0 {
  %5 = alloca ptr, align 8
  %6 = alloca i64, align 8
  %7 = alloca i64, align 8
  %8 = alloca i32, align 4
  %9 = alloca ptr, align 8
  store ptr %0, ptr %5, align 8
  store i64 %1, ptr %6, align 8
  store i64 %2, ptr %7, align 8
  store i32 %3, ptr %8, align 4
  call void @llvm.lifetime.start.p0(i64 8, ptr %9) #15
  %10 = load ptr, ptr %5, align 8
  store ptr %10, ptr %9, align 8
  %11 = load i64, ptr %6, align 8
  %12 = load ptr, ptr %9, align 8
  %13 = getelementptr inbounds nuw %struct.AHCIState, ptr %12, i32 0, i32 4
  %14 = load i32, ptr %13, align 16
  %15 = zext i32 %14 to i64
  %16 = icmp eq i64 %11, %15
  br i1 %16, label %17, label %23

17:                                               ; preds = %4
  %18 = load i64, ptr %7, align 8
  %19 = trunc i64 %18 to i32
  %20 = and i32 %19, 4092
  %21 = load ptr, ptr %9, align 8
  %22 = getelementptr inbounds nuw %struct.AHCIState, ptr %21, i32 0, i32 5
  store i32 %20, ptr %22, align 4
  br label %40

23:                                               ; preds = %4
  %24 = load i64, ptr %6, align 8
  %25 = load ptr, ptr %9, align 8
  %26 = getelementptr inbounds nuw %struct.AHCIState, ptr %25, i32 0, i32 4
  %27 = load i32, ptr %26, align 16
  %28 = add i32 %27, 4
  %29 = zext i32 %28 to i64
  %30 = icmp eq i64 %24, %29
  br i1 %30, label %31, label %39

31:                                               ; preds = %23
  %32 = load ptr, ptr %5, align 8
  %33 = load ptr, ptr %9, align 8
  %34 = getelementptr inbounds nuw %struct.AHCIState, ptr %33, i32 0, i32 5
  %35 = load i32, ptr %34, align 4
  %36 = zext i32 %35 to i64
  %37 = load i64, ptr %7, align 8
  %38 = load i32, ptr %8, align 4
  call void @ahci_mem_write(ptr noundef %32, i64 noundef %36, i64 noundef %37, i32 noundef %38)
  br label %39

39:                                               ; preds = %31, %23
  br label %40

40:                                               ; preds = %39, %17
  call void @llvm.lifetime.end.p0(i64 8, ptr %9) #15
  ret void
}