; Function Attrs: nounwind sspstrong uwtable
define internal void @ahci_idp_write(ptr noundef %0, i64 noundef %1, i64 noundef %2, i32 noundef %3) #0 {
  %5 = getelementptr inbounds nuw i8, ptr %0, i64 576
  %6 = load i32, ptr %5, align 16
  %7 = zext i32 %6 to i64
  %8 = icmp eq i64 %1, %7
  br i1 %8, label %9, label %13

9:                                                ; preds = %4
  %10 = trunc i64 %2 to i32
  %11 = and i32 %10, 4092
  %12 = getelementptr inbounds nuw i8, ptr %0, i64 580
  store i32 %11, ptr %12, align 4
  br label %21

13:                                               ; preds = %4
  %14 = add i32 %6, 4
  %15 = zext i32 %14 to i64
  %16 = icmp eq i64 %1, %15
  br i1 %16, label %17, label %21

17:                                               ; preds = %13
  %18 = getelementptr inbounds nuw i8, ptr %0, i64 580
  %19 = load i32, ptr %18, align 4
  %20 = zext i32 %19 to i64
  tail call void @ahci_mem_write(ptr noundef nonnull %0, i64 noundef %20, i64 noundef %2, i32 noundef %3)
  br label %21

21:                                               ; preds = %13, %17, %9
  ret void
}